Certificate:
    Data:
        Version: 3 (0x2)
        Serial Number: 1 (0x1)
    Signature Algorithm: md5WithRSAEncryption
        Issuer: CN=Example CA, ST=Virginia, C=US/emailAddress=ca@exampleca.org, O=Root Certification Authority
        Validity
            Not Before: Mar 24 14:57:14 2015 GMT
            Not After : Mar 23 14:57:14 2016 GMT
        Subject: CN=www.exampleca.org, ST=Virgina, C=US/emailAddress=ca@exampleca.org, O=Test Request
        Subject Public Key Info:
            Public Key Algorithm: rsaEncryption
                Public-Key: (1024 bit)
                Modulus:
                    00:aa:19:d9:4c:50:92:4f:cb:5a:f0:78:d2:ed:86:
                    43:77:51:5d:35:33:fd:0b:17:07:b8:a8:78:8f:6c:
                    8a:0a:ec:76:1d:fe:e8:0e:89:ba:01:b7:4e:9d:69:
                    9f:d9:41:84:ed:47:23:bd:a9:74:03:ef:d1:53:7b:
                    34:dd:38:a0:d3:3d:05:f7:22:04:31:a9:0f:e4:d6:
                    10:fa:a3:00:3a:4d:1d:d0:7e:15:fb:02:55:04:38:
                    5e:00:ec:2d:5c:06:d9:28:a4:17:55:da:99:ec:aa:
                    34:8a:59:7b:5c:df:df:63:4f:f7:b8:04:26:a6:09:
                    9f:2e:fa:a4:65:a7:fa:8b:23
                Exponent: 65537 (0x10001)
        X509v3 extensions:
            X509v3 Basic Constraints: 
                CA:FALSE
    Signature Algorithm: md5WithRSAEncryption
         44:b7:cf:e4:d6:ba:6b:0f:2b:cc:f5:11:3f:05:cc:a7:61:c8:
         42:ae:9e:5e:00:5d:06:09:6b:5a:ce:db:d8:7d:48:b6:6e:76:
         49:a7:a8:e8:3a:6c:c2:cf:40:90:3b:fe:9c:48:29:1a:86:89:
         ff:dd:d5:96:28:1e:01:ba:70:6a:d3:53:a0:2d:09:20:9d:3e:
         90:35:89:2c:44:57:d7:ba:03:9c:04:25:1d:a6:e7:65:a3:04:
         a9:5d:22:50:69:d5:c9:dd:6a:69:43:b7:c6:a0:98:4b:00:1d:
         11:d8:61:45:e8:20:a9:c2:93:28:50:1a:06:8d:6f:81:65:a6:
         de:f4:d5:43:4e:6c:e3:25:43:18:96:76:3b:67:56:f4:4e:81:
         11:aa:b9:cf:5f:e4:0e:80:45:92:35:8a:2b:09:59:25:57:1c:
         ec:07:64:bc:df:c2:6e:5d:81:24:ac:77:73:1d:45:34:1f:ea:
         e0:d4:4e:4f:ff:29:bf:57:36:70:31:80:a2:e2:82:1c:58:d1:
         4a:53:57:1f:db:55:02:89:1a:b3:e3:cb:c6:ba:22:be:77:b6:
         c1:6e:1f:8f:61:1b:85:97:86:47:b5:02:8c:76:64:14:39:ef:
         7d:15:85:50:4c:b0:d1:71:0a:ef:1e:a1:14:4a:9e:5d:de:96:
         d6:e7:b4:b7
-----BEGIN CERTIFICATE-----
MIIC9DCCAdygAwIBAgIBATANBgkqhkiG9w0BAQQFADB9MRMwEQYDVQQDEwpFeGFt
cGxlIENBMREwDwYDVQQIEwhWaXJnaW5pYTELMAkGA1UEBhMCVVMxHzAdBgkqhkiG
9w0BCQEWEGNhQGV4YW1wbGVjYS5vcmcxJTAjBgNVBAoTHFJvb3QgQ2VydGlmaWNh
dGlvbiBBdXRob3JpdHkwHhcNMTUwMzI0MTQ1NzE0WhcNMTYwMzIzMTQ1NzE0WjBz
MRowGAYDVQQDDBF3d3cuZXhhbXBsZWNhLm9yZzEQMA4GA1UECAwHVmlyZ2luYTEL
MAkGA1UEBhMCVVMxHzAdBgkqhkiG9w0BCQEWEGNhQGV4YW1wbGVjYS5vcmcxFTAT
BgNVBAoMDFRlc3QgUmVxdWVzdDCBnzANBgkqhkiG9w0BAQEFAAOBjQAwgYkCgYEA
qhnZTFCST8ta8HjS7YZDd1FdNTP9CxcHuKh4j2yKCux2Hf7oDom6AbdOnWmf2UGE
7Ucjval0A+/RU3s03Tig0z0F9yIEMakP5NYQ+qMAOk0d0H4V+wJVBDheAOwtXAbZ
KKQXVdqZ7Ko0ill7XN/fY0/3uAQmpgmfLvqkZaf6iyMCAwEAAaMNMAswCQYDVR0T
BAIwADANBgkqhkiG9w0BAQQFAAOCAQEARLfP5Na6aw8rzPURPwXMp2HIQq6eXgBd
BglrWs7b2H1Itm52Saeo6Dpsws9AkDv+nEgpGoaJ/93VligeAbpwatNToC0JIJ0+
kDWJLERX17oDnAQlHabnZaMEqV0iUGnVyd1qaUO3xqCYSwAdEdhhReggqcKTKFAa
Bo1vgWWm3vTVQ05s4yVDGJZ2O2dW9E6BEaq5z1/kDoBFkjWKKwlZJVcc7AdkvN/C
bl2BJKx3cx1FNB/q4NROT/8pv1c2cDGAouKCHFjRSlNXH9tVAokas+PLxroivne2
wW4fj2EbhZeGR7UCjHZkFDnvfRWFUEyw0XEK7x6hFEqeXd6W1ue0tw==
-----END CERTIFICATE-----
